; Function Attrs: inlinehint mustprogress uwtable
define internal fastcc noundef zeroext i1 @"_ZZN20eliminate_predicates14try_find_macroERNS_6clauseEENK3$_9clEP4exprS4_"(ptr %.0.val, ptr readonly captures(none) %.8.val, ptr noundef captures(address) %0, ptr noundef %1) unnamed_addr #8 align 2 {
  %3 = getelementptr inbounds nuw i8, ptr %0, i64 4
  %4 = load i32, ptr %3, align 4
  %5 = and i32 %4, 65535
  %6 = icmp eq i32 %5, 0
  br i1 %6, label %7, label %21

7:                                                ; preds = %2
  %8 = load ptr, ptr %.8.val, align 8, !tbaa !10
  %9 = icmp eq ptr %8, null
  br i1 %9, label %_ZNK6vectorIP4sortLb0EjE4sizeEv.exit, label %10

10:                                               ; preds = %7
  %11 = getelementptr inbounds i8, ptr %8, i64 -4
  %12 = load i32, ptr %11, align 4, !tbaa !14
  br label %_ZNK6vectorIP4sortLb0EjE4sizeEv.exit

_ZNK6vectorIP4sortLb0EjE4sizeEv.exit:             ; preds = %7, %10
  %.0.i = phi i32 [ %12, %10 ], [ 0, %7 ]
  %13 = tail call noundef zeroext i1 @_ZN20eliminate_predicates23can_be_quasi_macro_headEP4exprj(ptr noundef nonnull align 8 dereferenceable(400) %.0.val, ptr noundef nonnull %0, i32 noundef %.0.i)
  br i1 %13, label %14, label %21

14:                                               ; preds = %_ZNK6vectorIP4sortLb0EjE4sizeEv.exit
  %15 = tail call noundef zeroext i1 @_ZN20eliminate_predicates13is_macro_safeEP4expr(ptr noundef nonnull align 8 dereferenceable(400) %.0.val, ptr noundef %1)
  br i1 %15, label %16, label %21

16:                                               ; preds = %14
  %17 = getelementptr inbounds nuw i8, ptr %0, i64 16
  %18 = load ptr, ptr %17, align 8, !tbaa !64
  %19 = tail call noundef zeroext i1 @_Z6occursP9func_declP4expr(ptr noundef %18, ptr noundef %1)
  %20 = xor i1 %19, true
  br label %21

21:                                               ; preds = %_ZNK6vectorIP4sortLb0EjE4sizeEv.exit, %14, %16, %2
  %.0 = phi i1 [ false, %2 ], [ false, %14 ], [ false, %_ZNK6vectorIP4sortLb0EjE4sizeEv.exit ], [ %20, %16 ]
  ret i1 %.0
}